target datalayout = "e-m:e-p270:32:32-p271:32:32-p272:64:64-i64:64-i128:128-f80:128-n8:16:32:64-S128"
target triple = "x86_64-pc-linux-gnu"

%struct._zval_struct = type { %union._zend_value, %union.anon, %union.anon.2 }
%union._zend_value = type { i64 }
%union.anon = type { i32 }
%union.anon.2 = type { i32 }
%struct._zend_array = type { %struct._zend_refcounted_h, %union.anon.4, i32, %union.anon.6, i32, i32, i32, i32, i64, ptr }
%struct._zend_refcounted_h = type { i32, %union.anon.3 }
%union.anon.3 = type { i32 }
%union.anon.4 = type { i32 }
%union.anon.6 = type { ptr }
%struct._php_random_status_state_xoshiro256starstar = type { [4 x i64] }
%struct._zend_string = type { %struct._zend_refcounted_h, i64, i64, [1 x i8] }
%struct.anon.0 = type { i8, i8, %union.anon.1 }
%union.anon.1 = type { i16 }

; Function Attrs: alwaysinline nounwind uwtable
define internal zeroext i8 @zval_get_type(ptr noundef %0) #7 {
  %2 = alloca ptr, align 8
  store ptr %0, ptr %2, align 8, !tbaa !25
  %3 = load ptr, ptr %2, align 8, !tbaa !25
  %4 = getelementptr inbounds nuw %struct._zval_struct, ptr %3, i32 0, i32 1
  %5 = getelementptr inbounds nuw %struct.anon.0, ptr %4, i32 0, i32 0
  %6 = load i8, ptr %5, align 8, !tbaa !29
  ret i8 %6
}

; Function Attrs: alwaysinline nounwind uwtable
define internal i32 @zend_hash_num_elements(ptr noundef %0) #7 {
  %2 = alloca ptr, align 8
  store ptr %0, ptr %2, align 8, !tbaa !21
  %3 = load ptr, ptr %2, align 8, !tbaa !21
  %4 = getelementptr inbounds nuw %struct._zend_array, ptr %3, i32 0, i32 5
  %5 = load i32, ptr %4, align 4, !tbaa !75
  ret i32 %5
}

; Function Attrs: nounwind uwtable
define internal zeroext i1 @unserialize(ptr noundef %0, ptr noundef %1) #2 {
  %3 = alloca i1, align 1
  %4 = alloca ptr, align 8
  %5 = alloca ptr, align 8
  %6 = alloca ptr, align 8
  %7 = alloca ptr, align 8
  %8 = alloca i32, align 4
  %9 = alloca i32, align 4
  store ptr %0, ptr %4, align 8, !tbaa !13
  store ptr %1, ptr %5, align 8, !tbaa !21
  call void @llvm.lifetime.start.p0(i64 8, ptr %6) #9
  %10 = load ptr, ptr %4, align 8, !tbaa !13
  store ptr %10, ptr %6, align 8, !tbaa !4
  call void @llvm.lifetime.start.p0(i64 8, ptr %7) #9
  %11 = load ptr, ptr %5, align 8, !tbaa !21
  %12 = call i32 @zend_hash_num_elements(ptr noundef %11)
  %13 = icmp ne i32 %12, 4
  br i1 %13, label %14, label %15

14:                                               ; preds = %2
  store i1 false, ptr %3, align 1
  store i32 1, ptr %8, align 4
  br label %58

15:                                               ; preds = %2
  call void @llvm.lifetime.start.p0(i64 4, ptr %9) #9
  store i32 0, ptr %9, align 4, !tbaa !23
  br label %16

16:                                               ; preds = %52, %15
  %17 = load i32, ptr %9, align 4, !tbaa !23
  %18 = icmp ult i32 %17, 4
  br i1 %18, label %20, label %19

19:                                               ; preds = %16
  store i32 2, ptr %8, align 4
  br label %55

20:                                               ; preds = %16
  %21 = load ptr, ptr %5, align 8, !tbaa !21
  %22 = load i32, ptr %9, align 4, !tbaa !23
  %23 = zext i32 %22 to i64
  %24 = call ptr @zend_hash_index_find(ptr noundef %21, i64 noundef %23)
  store ptr %24, ptr %7, align 8, !tbaa !25
  %25 = load ptr, ptr %7, align 8, !tbaa !25
  %26 = icmp ne ptr %25, null
  br i1 %26, label %27, label %39

27:                                               ; preds = %20
  %28 = load ptr, ptr %7, align 8, !tbaa !25
  %29 = call zeroext i8 @zval_get_type(ptr noundef %28)
  %30 = zext i8 %29 to i32
  %31 = icmp ne i32 %30, 6
  br i1 %31, label %39, label %32

32:                                               ; preds = %27
  %33 = load ptr, ptr %7, align 8, !tbaa !25
  %34 = getelementptr inbounds nuw %struct._zval_struct, ptr %33, i32 0, i32 0
  %35 = load ptr, ptr %34, align 8, !tbaa !29
  %36 = getelementptr inbounds nuw %struct._zend_string, ptr %35, i32 0, i32 2
  %37 = load i64, ptr %36, align 8, !tbaa !30
  %38 = icmp ne i64 %37, 16
  br i1 %38, label %39, label %40

39:                                               ; preds = %32, %27, %20
  store i1 false, ptr %3, align 1
  store i32 1, ptr %8, align 4
  br label %55

40:                                               ; preds = %32
  %41 = load ptr, ptr %7, align 8, !tbaa !25
  %42 = getelementptr inbounds nuw %struct._zval_struct, ptr %41, i32 0, i32 0
  %43 = load ptr, ptr %42, align 8, !tbaa !29
  %44 = load ptr, ptr %6, align 8, !tbaa !4
  %45 = getelementptr inbounds nuw %struct._php_random_status_state_xoshiro256starstar, ptr %44, i32 0, i32 0
  %46 = load i32, ptr %9, align 4, !tbaa !23
  %47 = zext i32 %46 to i64
  %48 = getelementptr inbounds nuw [4 x i64], ptr %45, i64 0, i64 %47
  %49 = call zeroext i1 @php_random_hex2bin_le(ptr noundef %43, ptr noundef %48)
  br i1 %49, label %51, label %50

50:                                               ; preds = %40
  store i1 false, ptr %3, align 1
  store i32 1, ptr %8, align 4
  br label %55

51:                                               ; preds = %40
  br label %52

52:                                               ; preds = %51
  %53 = load i32, ptr %9, align 4, !tbaa !23
  %54 = add i32 %53, 1
  store i32 %54, ptr %9, align 4, !tbaa !23
  br label %16

55:                                               ; preds = %50, %39, %19
  call void @llvm.lifetime.end.p0(i64 4, ptr %9) #9
  %56 = load i32, ptr %8, align 4
  switch i32 %56, label %58 [
    i32 2, label %57
  ]

57:                                               ; preds = %55
  store i1 true, ptr %3, align 1
  store i32 1, ptr %8, align 4
  br label %58

58:                                               ; preds = %57, %55, %14
  call void @llvm.lifetime.end.p0(i64 8, ptr %7) #9
  call void @llvm.lifetime.end.p0(i64 8, ptr %6) #9
  %59 = load i1, ptr %3, align 1
  ret i1 %59
}