; Function Attrs: nounwind uwtable
define internal noundef zeroext i1 @unserialize(ptr noundef %0, ptr noundef %1) #3 {
  %3 = getelementptr inbounds nuw i8, ptr %1, i64 28
  %4 = load i32, ptr %3, align 4, !tbaa !9
  %.not = icmp eq i32 %4, 4
  br i1 %.not, label %.preheader, label %.loopexit

5:                                                ; preds = %14
  %indvars.iv.next = add nuw nsw i64 %indvars.iv, 1
  %exitcond = icmp eq i64 %indvars.iv.next, 4
  br i1 %exitcond, label %.loopexit, label %.preheader

.preheader:                                       ; preds = %2, %5
  %indvars.iv = phi i64 [ %indvars.iv.next, %5 ], [ 0, %2 ]
  %6 = tail call ptr @zend_hash_index_find(ptr noundef %1, i64 noundef %indvars.iv) #8
  %.not16 = icmp eq ptr %6, null
  br i1 %.not16, label %.loopexit, label %7

7:                                                ; preds = %.preheader
  %8 = getelementptr inbounds nuw i8, ptr %6, i64 8
  %9 = load i8, ptr %8, align 8, !tbaa !8
  %.not17 = icmp eq i8 %9, 6
  br i1 %.not17, label %10, label %.loopexit

10:                                               ; preds = %7
  %11 = load ptr, ptr %6, align 8, !tbaa !8
  %12 = getelementptr inbounds nuw i8, ptr %11, i64 16
  %13 = load i64, ptr %12, align 8, !tbaa !14
  %.not18 = icmp eq i64 %13, 16
  br i1 %.not18, label %14, label %.loopexit

14:                                               ; preds = %10
  %15 = getelementptr inbounds nuw [4 x i64], ptr %0, i64 0, i64 %indvars.iv
  %16 = tail call zeroext i1 @php_random_hex2bin_le(ptr noundef nonnull %11, ptr noundef %15) #8
  br i1 %16, label %5, label %.loopexit

.loopexit:                                        ; preds = %5, %10, %7, %.preheader, %14, %2
  %.014 = phi i1 [ false, %2 ], [ true, %5 ], [ false, %10 ], [ false, %7 ], [ false, %.preheader ], [ false, %14 ]
  ret i1 %.014
}